target datalayout = "e-m:e-p270:32:32-p271:32:32-p272:64:64-i64:64-i128:128-f80:128-n8:16:32:64-S128"
target triple = "x86_64-pc-linux-gnu"

%struct.Abc_Frame_t_ = type { ptr, ptr, ptr, ptr, ptr, ptr, ptr, ptr, ptr, ptr, i32, i32, i32, i32, i32, ptr, float, float, i32, i32, ptr, ptr, ptr, double, double, ptr, ptr, ptr, ptr, ptr, ptr, ptr, ptr, ptr, ptr, ptr, ptr, float, ptr, i32, ptr, ptr, ptr, ptr, ptr, i32, i32, i32, i32, i32, i32, ptr, ptr, ptr, ptr, ptr, ptr, i32, i32, ptr, ptr, ptr, ptr, ptr, ptr, ptr, ptr, ptr, ptr, ptr, ptr, ptr, ptr, ptr, ptr, ptr, ptr, ptr, ptr, ptr, ptr, ptr, ptr, ptr, ptr, ptr, ptr, ptr, ptr }
%struct.Bac_Man_t_ = type { ptr, ptr, ptr, ptr, i32, i32, ptr, ptr, ptr, %struct.Vec_Int_t_, %struct.Vec_Int_t_, %struct.Vec_Int_t_, %struct.Vec_Int_t_, ptr, ptr, [4 x i32], [73 x ptr], [73 x ptr] }
%struct.Vec_Int_t_ = type { i32, i32, ptr }

@.str.3 = private unnamed_addr constant [31 x i8] c"Converting to Ptr has failed.\0A\00", align 1
@.str.13 = private unnamed_addr constant [5 x i8] c"apvh\00", align 1
@globalUtilOptind = external global i32, align 4
@.str.23 = private unnamed_addr constant [5 x i8] c"blif\00", align 1
@.str.24 = private unnamed_addr constant [2 x i8] c"v\00", align 1
@.str.26 = private unnamed_addr constant [4 x i8] c"bac\00", align 1
@.str.31 = private unnamed_addr constant [4 x i8] c"yes\00", align 1
@.str.32 = private unnamed_addr constant [3 x i8] c"no\00", align 1
@.str.34 = private unnamed_addr constant [62 x i8] c"\09-v     : toggle printing verbose information [default = %s]\0A\00", align 1
@.str.35 = private unnamed_addr constant [35 x i8] c"\09-h     : print the command usage\0A\00", align 1
@.str.38 = private unnamed_addr constant [49 x i8] c"Bac_CommandWrite(): There is no current design.\0A\00", align 1
@.str.39 = private unnamed_addr constant [7 x i8] c"_out.v\00", align 1
@.str.40 = private unnamed_addr constant [55 x i8] c"Output file name should be given on the command line.\0A\00", align 1
@.str.41 = private unnamed_addr constant [37 x i8] c"Unrecognized output file extension.\0A\00", align 1
@.str.42 = private unnamed_addr constant [24 x i8] c"usage: @_write [-apvh]\0A\00", align 1
@.str.43 = private unnamed_addr constant [60 x i8] c"\09         writes the design into a file in BLIF or Verilog\0A\00", align 1
@.str.44 = private unnamed_addr constant [71 x i8] c"\09-a     : toggle using assign-statement for primitives [default = %s]\0A\00", align 1
@.str.45 = private unnamed_addr constant [78 x i8] c"\09-p     : toggle using Ptr construction (mapped Verilog only) [default = %s]\0A\00", align 1

; Function Attrs: inlinehint nounwind uwtable
define internal ptr @Bac_ManName(ptr noundef %0) #3 {
  %2 = alloca ptr, align 8
  store ptr %0, ptr %2, align 8, !tbaa !8
  %3 = load ptr, ptr %2, align 8, !tbaa !8
  %4 = getelementptr inbounds nuw %struct.Bac_Man_t_, ptr %3, i32 0, i32 0
  %5 = load ptr, ptr %4, align 8, !tbaa !70
  ret ptr %5
}

; Function Attrs: inlinehint nounwind uwtable
define internal ptr @Bac_AbcGetMan(ptr noundef %0) #3 {
  %2 = alloca ptr, align 8
  store ptr %0, ptr %2, align 8, !tbaa !10
  %3 = load ptr, ptr %2, align 8, !tbaa !10
  %4 = getelementptr inbounds nuw %struct.Abc_Frame_t_, ptr %3, i32 0, i32 74
  %5 = load ptr, ptr %4, align 8, !tbaa !12
  ret ptr %5
}

; Function Attrs: nounwind uwtable
define internal i32 @Bac_CommandWrite(ptr noundef %0, i32 noundef %1, ptr noundef %2) #0 {
  %4 = alloca i32, align 4
  %5 = alloca ptr, align 8
  %6 = alloca i32, align 4
  %7 = alloca ptr, align 8
  %8 = alloca ptr, align 8
  %9 = alloca ptr, align 8
  %10 = alloca i32, align 4
  %11 = alloca i32, align 4
  %12 = alloca i32, align 4
  %13 = alloca i32, align 4
  %14 = alloca i32, align 4
  %15 = alloca ptr, align 8
  store ptr %0, ptr %5, align 8, !tbaa !10
  store i32 %1, ptr %6, align 4, !tbaa !28
  store ptr %2, ptr %7, align 8, !tbaa !29
  call void @llvm.lifetime.start.p0(i64 8, ptr %8) #10
  %16 = load ptr, ptr %5, align 8, !tbaa !10
  %17 = call ptr @Bac_AbcGetMan(ptr noundef %16)
  store ptr %17, ptr %8, align 8, !tbaa !8
  call void @llvm.lifetime.start.p0(i64 8, ptr %9) #10
  store ptr null, ptr %9, align 8, !tbaa !31
  call void @llvm.lifetime.start.p0(i64 4, ptr %10) #10
  store i32 1, ptr %10, align 4, !tbaa !28
  call void @llvm.lifetime.start.p0(i64 4, ptr %11) #10
  store i32 0, ptr %11, align 4, !tbaa !28
  call void @llvm.lifetime.start.p0(i64 4, ptr %12) #10
  call void @llvm.lifetime.start.p0(i64 4, ptr %13) #10
  store i32 0, ptr %13, align 4, !tbaa !28
  call void (...) @Extra_UtilGetoptReset()
  br label %18

18:                                               ; preds = %36, %3
  %19 = load i32, ptr %6, align 4, !tbaa !28
  %20 = load ptr, ptr %7, align 8, !tbaa !29
  %21 = call i32 @Extra_UtilGetopt(i32 noundef %19, ptr noundef %20, ptr noundef @.str.13)
  store i32 %21, ptr %12, align 4, !tbaa !28
  %22 = icmp ne i32 %21, -1
  br i1 %22, label %23, label %37

23:                                               ; preds = %18
  %24 = load i32, ptr %12, align 4, !tbaa !28
  switch i32 %24, label %35 [
    i32 97, label %25
    i32 112, label %28
    i32 118, label %31
    i32 104, label %34
  ]

25:                                               ; preds = %23
  %26 = load i32, ptr %10, align 4, !tbaa !28
  %27 = xor i32 %26, 1
  store i32 %27, ptr %10, align 4, !tbaa !28
  br label %36

28:                                               ; preds = %23
  %29 = load i32, ptr %11, align 4, !tbaa !28
  %30 = xor i32 %29, 1
  store i32 %30, ptr %11, align 4, !tbaa !28
  br label %36

31:                                               ; preds = %23
  %32 = load i32, ptr %13, align 4, !tbaa !28
  %33 = xor i32 %32, 1
  store i32 %33, ptr %13, align 4, !tbaa !28
  br label %36

34:                                               ; preds = %23
  br label %112

35:                                               ; preds = %23
  br label %112

36:                                               ; preds = %31, %28, %25
  br label %18, !llvm.loop !49

37:                                               ; preds = %18
  %38 = load ptr, ptr %8, align 8, !tbaa !8
  %39 = icmp eq ptr %38, null
  br i1 %39, label %40, label %41

40:                                               ; preds = %37
  call void (i32, ptr, ...) @Abc_Print(i32 noundef 1, ptr noundef @.str.38)
  store i32 0, ptr %4, align 4
  store i32 1, ptr %14, align 4
  br label %122

41:                                               ; preds = %37
  %42 = load i32, ptr %6, align 4, !tbaa !28
  %43 = load i32, ptr @globalUtilOptind, align 4, !tbaa !28
  %44 = add nsw i32 %43, 1
  %45 = icmp eq i32 %42, %44
  br i1 %45, label %46, label %52

46:                                               ; preds = %41
  %47 = load ptr, ptr %7, align 8, !tbaa !29
  %48 = load i32, ptr @globalUtilOptind, align 4, !tbaa !28
  %49 = sext i32 %48 to i64
  %50 = getelementptr inbounds ptr, ptr %47, i64 %49
  %51 = load ptr, ptr %50, align 8, !tbaa !31
  store ptr %51, ptr %9, align 8, !tbaa !31
  br label %66

52:                                               ; preds = %41
  %53 = load i32, ptr %6, align 4, !tbaa !28
  %54 = load i32, ptr @globalUtilOptind, align 4, !tbaa !28
  %55 = icmp eq i32 %53, %54
  br i1 %55, label %56, label %63

56:                                               ; preds = %52
  %57 = load ptr, ptr %8, align 8, !tbaa !8
  %58 = icmp ne ptr %57, null
  br i1 %58, label %59, label %63

59:                                               ; preds = %56
  %60 = load ptr, ptr %8, align 8, !tbaa !8
  %61 = call ptr @Bac_ManName(ptr noundef %60)
  %62 = call ptr @Extra_FileNameGenericAppend(ptr noundef %61, ptr noundef @.str.39)
  store ptr %62, ptr %9, align 8, !tbaa !31
  br label %65

63:                                               ; preds = %56, %52
  %64 = call i32 (ptr, ...) @printf(ptr noundef @.str.40)
  store i32 0, ptr %4, align 4
  store i32 1, ptr %14, align 4
  br label %122

65:                                               ; preds = %59
  br label %66

66:                                               ; preds = %65, %46
  %67 = load ptr, ptr %9, align 8, !tbaa !31
  %68 = call ptr @Extra_FileNameExtension(ptr noundef %67)
  %69 = call i32 @strcmp(ptr noundef %68, ptr noundef @.str.23) #11
  %70 = icmp ne i32 %69, 0
  br i1 %70, label %74, label %71

71:                                               ; preds = %66
  %72 = load ptr, ptr %9, align 8, !tbaa !31
  %73 = load ptr, ptr %8, align 8, !tbaa !8
  call void @Bac_ManWriteBlif(ptr noundef %72, ptr noundef %73)
  br label %111

74:                                               ; preds = %66
  %75 = load ptr, ptr %9, align 8, !tbaa !31
  %76 = call ptr @Extra_FileNameExtension(ptr noundef %75)
  %77 = call i32 @strcmp(ptr noundef %76, ptr noundef @.str.24) #11
  %78 = icmp ne i32 %77, 0
  br i1 %78, label %99, label %79

79:                                               ; preds = %74
  %80 = load i32, ptr %11, align 4, !tbaa !28
  %81 = icmp ne i32 %80, 0
  br i1 %81, label %82, label %94

82:                                               ; preds = %79
  call void @llvm.lifetime.start.p0(i64 8, ptr %15) #10
  %83 = load ptr, ptr %8, align 8, !tbaa !8
  %84 = call ptr @Bac_PtrDeriveFromCba(ptr noundef %83)
  store ptr %84, ptr %15, align 8, !tbaa !3
  %85 = load ptr, ptr %15, align 8, !tbaa !3
  %86 = icmp eq ptr %85, null
  br i1 %86, label %87, label %89

87:                                               ; preds = %82
  %88 = call i32 (ptr, ...) @printf(ptr noundef @.str.3)
  br label %93

89:                                               ; preds = %82
  %90 = load ptr, ptr %9, align 8, !tbaa !31
  %91 = load ptr, ptr %15, align 8, !tbaa !3
  call void @Bac_PtrDumpVerilog(ptr noundef %90, ptr noundef %91)
  %92 = load ptr, ptr %15, align 8, !tbaa !3
  call void @Bac_PtrFree(ptr noundef %92)
  br label %93

93:                                               ; preds = %89, %87
  call void @llvm.lifetime.end.p0(i64 8, ptr %15) #10
  br label %98

94:                                               ; preds = %79
  %95 = load ptr, ptr %9, align 8, !tbaa !31
  %96 = load ptr, ptr %8, align 8, !tbaa !8
  %97 = load i32, ptr %10, align 4, !tbaa !28
  call void @Bac_ManWriteVerilog(ptr noundef %95, ptr noundef %96, i32 noundef %97)
  br label %98

98:                                               ; preds = %94, %93
  br label %110

99:                                               ; preds = %74
  %100 = load ptr, ptr %9, align 8, !tbaa !31
  %101 = call ptr @Extra_FileNameExtension(ptr noundef %100)
  %102 = call i32 @strcmp(ptr noundef %101, ptr noundef @.str.26) #11
  %103 = icmp ne i32 %102, 0
  br i1 %103, label %107, label %104

104:                                              ; preds = %99
  %105 = load ptr, ptr %9, align 8, !tbaa !31
  %106 = load ptr, ptr %8, align 8, !tbaa !8
  call void @Bac_ManWriteBac(ptr noundef %105, ptr noundef %106)
  br label %109

107:                                              ; preds = %99
  %108 = call i32 (ptr, ...) @printf(ptr noundef @.str.41)
  store i32 0, ptr %4, align 4
  store i32 1, ptr %14, align 4
  br label %122

109:                                              ; preds = %104
  br label %110

110:                                              ; preds = %109, %98
  br label %111

111:                                              ; preds = %110, %71
  store i32 0, ptr %4, align 4
  store i32 1, ptr %14, align 4
  br label %122

112:                                              ; preds = %35, %34
  call void (i32, ptr, ...) @Abc_Print(i32 noundef -2, ptr noundef @.str.42)
  call void (i32, ptr, ...) @Abc_Print(i32 noundef -2, ptr noundef @.str.43)
  %113 = load i32, ptr %10, align 4, !tbaa !28
  %114 = icmp ne i32 %113, 0
  %115 = select i1 %114, ptr @.str.31, ptr @.str.32
  call void (i32, ptr, ...) @Abc_Print(i32 noundef -2, ptr noundef @.str.44, ptr noundef %115)
  %116 = load i32, ptr %11, align 4, !tbaa !28
  %117 = icmp ne i32 %116, 0
  %118 = select i1 %117, ptr @.str.31, ptr @.str.32
  call void (i32, ptr, ...) @Abc_Print(i32 noundef -2, ptr noundef @.str.45, ptr noundef %118)
  %119 = load i32, ptr %13, align 4, !tbaa !28
  %120 = icmp ne i32 %119, 0
  %121 = select i1 %120, ptr @.str.31, ptr @.str.32
  call void (i32, ptr, ...) @Abc_Print(i32 noundef -2, ptr noundef @.str.34, ptr noundef %121)
  call void (i32, ptr, ...) @Abc_Print(i32 noundef -2, ptr noundef @.str.35)
  store i32 1, ptr %4, align 4
  store i32 1, ptr %14, align 4
  br label %122

122:                                              ; preds = %112, %111, %107, %63, %40
  call void @llvm.lifetime.end.p0(i64 4, ptr %13) #10
  call void @llvm.lifetime.end.p0(i64 4, ptr %12) #10
  call void @llvm.lifetime.end.p0(i64 4, ptr %11) #10
  call void @llvm.lifetime.end.p0(i64 4, ptr %10) #10
  call void @llvm.lifetime.end.p0(i64 8, ptr %9) #10
  call void @llvm.lifetime.end.p0(i64 8, ptr %8) #10
  %123 = load i32, ptr %4, align 4
  ret i32 %123
}