; Function Attrs: nounwind uwtable
define internal range(i32 0, 2) i32 @Bac_CommandWrite(ptr noundef readonly captures(none) %0, i32 noundef %1, ptr noundef %2) #0 {
  %4 = getelementptr i8, ptr %0, i64 528
  %.val = load ptr, ptr %4, align 8, !tbaa !3
  tail call void (...) @Extra_UtilGetoptReset() #14
  br label %.outer

.outer:                                           ; preds = %7, %3
  %.037.ph = phi i32 [ %8, %7 ], [ 1, %3 ]
  %.035.ph = phi i32 [ %.035.ph67, %7 ], [ 0, %3 ]
  %.033.ph = phi i32 [ %.033, %7 ], [ 0, %3 ]
  br label %.outer66

.outer66:                                         ; preds = %.outer, %9
  %.035.ph67 = phi i32 [ %.035.ph, %.outer ], [ %10, %9 ]
  %.033.ph68 = phi i32 [ %.033.ph, %.outer ], [ %.033, %9 ]
  br label %5

5:                                                ; preds = %.outer66, %11
  %.033 = phi i32 [ %12, %11 ], [ %.033.ph68, %.outer66 ]
  %6 = tail call i32 @Extra_UtilGetopt(i32 noundef %1, ptr noundef %2, ptr noundef nonnull @.str.13) #14
  switch i32 %6, label %49 [
    i32 -1, label %13
    i32 97, label %7
    i32 112, label %9
    i32 118, label %11
  ]

7:                                                ; preds = %5
  %8 = xor i32 %.037.ph, 1
  br label %.outer, !llvm.loop !42

9:                                                ; preds = %5
  %10 = xor i32 %.035.ph67, 1
  br label %.outer66, !llvm.loop !42

11:                                               ; preds = %5
  %12 = xor i32 %.033, 1
  br label %5, !llvm.loop !42

13:                                               ; preds = %5
  %14 = icmp eq ptr %.val, null
  br i1 %14, label %15, label %16

15:                                               ; preds = %13
  tail call void (i32, ptr, ...) @Abc_Print(i32 noundef 1, ptr noundef nonnull @.str.38)
  br label %53

16:                                               ; preds = %13
  %17 = load i32, ptr @globalUtilOptind, align 4, !tbaa !25
  %18 = add nsw i32 %17, 1
  %19 = icmp eq i32 %1, %18
  br i1 %19, label %20, label %24

20:                                               ; preds = %16
  %21 = sext i32 %17 to i64
  %22 = getelementptr inbounds ptr, ptr %2, i64 %21
  %23 = load ptr, ptr %22, align 8, !tbaa !26
  br label %29

24:                                               ; preds = %16
  %25 = icmp eq i32 %1, %17
  br i1 %25, label %26, label %28

26:                                               ; preds = %24
  %.val52 = load ptr, ptr %.val, align 8, !tbaa !43
  %27 = tail call ptr @Extra_FileNameGenericAppend(ptr noundef %.val52, ptr noundef nonnull @.str.39) #14
  br label %29

28:                                               ; preds = %24
  %puts = tail call i32 @puts(ptr nonnull dereferenceable(1) @str.7)
  br label %53

29:                                               ; preds = %26, %20
  %.034 = phi ptr [ %23, %20 ], [ %27, %26 ]
  %30 = tail call ptr @Extra_FileNameExtension(ptr noundef %.034) #14
  %31 = tail call i32 @strcmp(ptr noundef nonnull dereferenceable(1) %30, ptr noundef nonnull dereferenceable(5) @.str.23) #15
  %.not43 = icmp eq i32 %31, 0
  br i1 %.not43, label %32, label %sub_0

32:                                               ; preds = %29
  tail call void @Bac_ManWriteBlif(ptr noundef %.034, ptr noundef nonnull %.val) #14
  br label %53

sub_0:                                            ; preds = %29
  %33 = tail call ptr @Extra_FileNameExtension(ptr noundef %.034) #14
  %34 = load i8, ptr %33, align 1
  %.not = icmp eq i8 %34, 118
  br i1 %.not, label %.tail, label %.tail.thread

.tail:                                            ; preds = %sub_0
  %35 = getelementptr inbounds nuw i8, ptr %33, i64 1
  %36 = load i8, ptr %35, align 1
  %37 = icmp eq i8 %36, 0
  br i1 %37, label %38, label %.tail.thread

38:                                               ; preds = %.tail
  %.not45 = icmp eq i32 %.035.ph67, 0
  br i1 %.not45, label %44, label %39

39:                                               ; preds = %38
  %40 = tail call ptr @Bac_PtrDeriveFromCba(ptr noundef nonnull %.val) #14
  %41 = icmp eq ptr %40, null
  br i1 %41, label %42, label %43

42:                                               ; preds = %39
  %puts46 = tail call i32 @puts(ptr nonnull dereferenceable(1) @str.8)
  br label %53

43:                                               ; preds = %39
  tail call void @Bac_PtrDumpVerilog(ptr noundef %.034, ptr noundef nonnull %40) #14
  tail call void @Bac_PtrFree(ptr noundef nonnull %40) #14
  br label %53

44:                                               ; preds = %38
  tail call void @Bac_ManWriteVerilog(ptr noundef %.034, ptr noundef nonnull %.val, i32 noundef %.037.ph) #14
  br label %53

.tail.thread:                                     ; preds = %sub_0, %.tail
  %45 = tail call ptr @Extra_FileNameExtension(ptr noundef %.034) #14
  %46 = tail call i32 @strcmp(ptr noundef nonnull dereferenceable(1) %45, ptr noundef nonnull dereferenceable(4) @.str.26) #15
  %.not47 = icmp eq i32 %46, 0
  br i1 %.not47, label %47, label %48

47:                                               ; preds = %.tail.thread
  tail call void @Bac_ManWriteBac(ptr noundef %.034, ptr noundef nonnull %.val) #14
  br label %53

48:                                               ; preds = %.tail.thread
  %puts48 = tail call i32 @puts(ptr nonnull dereferenceable(1) @str.9)
  br label %53

49:                                               ; preds = %5
  tail call void (i32, ptr, ...) @Abc_Print(i32 noundef -2, ptr noundef nonnull @.str.42)
  tail call void (i32, ptr, ...) @Abc_Print(i32 noundef -2, ptr noundef nonnull @.str.43)
  %.not49 = icmp eq i32 %.037.ph, 0
  %50 = select i1 %.not49, ptr @.str.32, ptr @.str.31
  tail call void (i32, ptr, ...) @Abc_Print(i32 noundef -2, ptr noundef nonnull @.str.44, ptr noundef nonnull %50)
  %.not50 = icmp eq i32 %.035.ph67, 0
  %51 = select i1 %.not50, ptr @.str.32, ptr @.str.31
  tail call void (i32, ptr, ...) @Abc_Print(i32 noundef -2, ptr noundef nonnull @.str.45, ptr noundef nonnull %51)
  %.not51 = icmp eq i32 %.033, 0
  %52 = select i1 %.not51, ptr @.str.32, ptr @.str.31
  tail call void (i32, ptr, ...) @Abc_Print(i32 noundef -2, ptr noundef nonnull @.str.34, ptr noundef nonnull %52)
  tail call void (i32, ptr, ...) @Abc_Print(i32 noundef -2, ptr noundef nonnull @.str.35)
  br label %53

53:                                               ; preds = %32, %44, %47, %43, %42, %49, %48, %28, %15
  %.0 = phi i32 [ 1, %49 ], [ 0, %15 ], [ 0, %48 ], [ 0, %28 ], [ 0, %42 ], [ 0, %43 ], [ 0, %47 ], [ 0, %44 ], [ 0, %32 ]
  ret i32 %.0
}